; Function Attrs: nofree norecurse nosync nounwind memory(argmem: read) uwtable
define internal range(i32 -1, 5) i32 @pg_mule_verifychar(ptr noundef readonly captures(none) %0, i32 noundef %1) #5 {
  %3 = load i8, ptr %0, align 1
  %4 = add i8 %3, 127
  %or.cond.i = icmp ult i8 %4, 13
  br i1 %or.cond.i, label %pg_mule_mblen.exit, label %5

5:                                                ; preds = %2
  %6 = and i8 %3, -2
  %switch.i = icmp eq i8 %6, -102
  %7 = add i8 %3, 112
  %or.cond11.i = icmp ult i8 %7, 10
  %or.cond14.i = or i1 %switch.i, %or.cond11.i
  br i1 %or.cond14.i, label %pg_mule_mblen.exit, label %8

8:                                                ; preds = %5
  %switch13.i = icmp eq i8 %6, -100
  %spec.select.i = select i1 %switch13.i, i32 4, i32 1
  br label %pg_mule_mblen.exit

pg_mule_mblen.exit:                               ; preds = %2, %5, %8
  %.0.i = phi i32 [ 2, %2 ], [ 3, %5 ], [ %spec.select.i, %8 ]
  %9 = icmp slt i32 %1, %.0.i
  br i1 %9, label %.loopexit, label %.preheader

.preheader:                                       ; preds = %pg_mule_mblen.exit, %11
  %.08 = phi i32 [ %12, %11 ], [ %.0.i, %pg_mule_mblen.exit ]
  %.07 = phi ptr [ %13, %11 ], [ %0, %pg_mule_mblen.exit ]
  %10 = icmp sgt i32 %.08, 1
  br i1 %10, label %11, label %.loopexit

11:                                               ; preds = %.preheader
  %12 = add nsw i32 %.08, -1
  %13 = getelementptr inbounds nuw i8, ptr %.07, i64 1
  %14 = load i8, ptr %13, align 1
  %.not = icmp sgt i8 %14, -1
  br i1 %.not, label %.loopexit, label %.preheader, !llvm.loop !20

.loopexit:                                        ; preds = %.preheader, %11, %pg_mule_mblen.exit
  %.0 = phi i32 [ -1, %pg_mule_mblen.exit ], [ %.0.i, %.preheader ], [ -1, %11 ]
  ret i32 %.0
}